; Function Attrs: mustprogress uwtable
define hidden void @_ZN4cvc58internal5proof17LfscNodeConverter20getNameForUserNameOfB5cxx11ENS0_12NodeTemplateILb1EEE(ptr noalias sret(%"class.std::__cxx11::basic_string") align 8 %agg.result, ptr noundef nonnull align 8 dereferenceable(760) %this, ptr noundef nonnull %v) local_unnamed_addr #3 align 2 personality ptr @__gxx_personality_v0 {
entry:
  %name = alloca %"class.std::__cxx11::basic_string", align 8
  call void @_ZNK4cvc58internal12NodeTemplateILb1EE7getNameB5cxx11Ev(ptr nonnull sret(%"class.std::__cxx11::basic_string") align 8 %name, ptr noundef nonnull align 8 dereferenceable(8) %v)
  %0 = load ptr, ptr %v, align 8
  %bf.load.i.i = load i64, ptr %0, align 8
  %bf.clear.i.i = and i64 %bf.load.i.i, 1099511627775
  invoke void @_ZN4cvc58internal5proof17LfscNodeConverter28getNameForUserNameOfInternalEmRKNSt7__cxx1112basic_stringIcSt11char_traitsIcESaIcEEE(ptr sret(%"class.std::__cxx11::basic_string") align 8 %agg.result, ptr noundef nonnull align 8 dereferenceable(760) %this, i64 noundef %bf.clear.i.i, ptr noundef nonnull align 8 dereferenceable(32) %name)
          to label %invoke.cont2 unwind label %lpad

invoke.cont2:                                     ; preds = %entry
  call void @_ZNSt7__cxx1112basic_stringIcSt11char_traitsIcESaIcEED1Ev(ptr noundef nonnull align 8 dereferenceable(32) %name) #21
  ret void

lpad:                                             ; preds = %entry
  %1 = landingpad { ptr, i32 }
          cleanup
  call void @_ZNSt7__cxx1112basic_stringIcSt11char_traitsIcESaIcEED1Ev(ptr noundef nonnull align 8 dereferenceable(32) %name) #21
  resume { ptr, i32 } %1
}